(dp0
(cnumpy.core.multiarray
scalar
p1
(cnumpy
dtype
p2
(S'i8'
p3
I0
I1
tp4
Rp5
(I3
S'<'
p6
NNNI-1
I-1
I0
tp7
bS'#\x00\x00\x00\x00\x00\x00\x00'
p8
tp9
Rp10
g1
(g5
S'S\x00\x00\x00\x00\x00\x00\x00'
p11
tp12
Rp13
g1
(g5
S'\r\x00\x00\x00\x00\x00\x00\x00'
p14
tp15
Rp16
g1
(g5
S'U\x00\x00\x00\x00\x00\x00\x00'
p17
tp18
Rp19
g1
(g5
S'6\x00\x00\x00\x00\x00\x00\x00'
p20
tp21
Rp22
g1
(g5
S'-\x00\x00\x00\x00\x00\x00\x00'
p23
tp24
Rp25
g1
(g5
S'7\x00\x00\x00\x00\x00\x00\x00'
p26
tp27
Rp28
g1
(g5
S'\x07\x00\x00\x00\x00\x00\x00\x00'
p29
tp30
Rp31
g1
(g5
S'G\x00\x00\x00\x00\x00\x00\x00'
p32
tp33
Rp34
g1
(g5
S'K\x00\x00\x00\x00\x00\x00\x00'
p35
tp36
Rp37
g1
(g5
S'\x1c\x00\x00\x00\x00\x00\x00\x00'
p38
tp39
Rp40
g1
(g5
S'\x01\x00\x00\x00\x00\x00\x00\x00'
p41
tp42
Rp43
g1
(g5
S'!\x00\x00\x00\x00\x00\x00\x00'
p44
tp45
Rp46
g1
(g5
S'2\x00\x00\x00\x00\x00\x00\x00'
p47
tp48
Rp49
g1
(g5
S'\x08\x00\x00\x00\x00\x00\x00\x00'
p50
tp51
Rp52
g1
(g5
S'C\x00\x00\x00\x00\x00\x00\x00'
p53
tp54
Rp55
g1
(g5
S'W\x00\x00\x00\x00\x00\x00\x00'
p56
tp57
Rp58
g1
(g5
S'F\x00\x00\x00\x00\x00\x00\x00'
p59
tp60
Rp61
g1
(g5
S'\x0e\x00\x00\x00\x00\x00\x00\x00'
p62
tp63
Rp64
g1
(g5
S'`\x00\x00\x00\x00\x00\x00\x00'
p65
tp66
Rp67
g1
(g5
S'?\x00\x00\x00\x00\x00\x00\x00'
p68
tp69
Rp70
g1
(g5
S'\x14\x00\x00\x00\x00\x00\x00\x00'
p71
tp72
Rp73
g1
(g5
S'^\x00\x00\x00\x00\x00\x00\x00'
p74
tp75
Rp76
g1
(g5
S'L\x00\x00\x00\x00\x00\x00\x00'
p77
tp78
Rp79
g1
(g5
S'"\x00\x00\x00\x00\x00\x00\x00'
p80
tp81
Rp82
g1
(g5
S'\x0c\x00\x00\x00\x00\x00\x00\x00'
p83
tp84
Rp85
g1
(g5
S'.\x00\x00\x00\x00\x00\x00\x00'
p86
tp87
Rp88
g1
(g5
S'M\x00\x00\x00\x00\x00\x00\x00'
p89
tp90
Rp91
g1
(g5
S'\x0f\x00\x00\x00\x00\x00\x00\x00'
p92
tp93
Rp94
g1
(g5
S'%\x00\x00\x00\x00\x00\x00\x00'
p95
tp96
Rp97
g1
(g5
S'<\x00\x00\x00\x00\x00\x00\x00'
p98
tp99
Rp100
g1
(g5
S'A\x00\x00\x00\x00\x00\x00\x00'
p101
tp102
Rp103
g1
(g5
S'P\x00\x00\x00\x00\x00\x00\x00'
p104
tp105
Rp106
g1
(g5
S'[\x00\x00\x00\x00\x00\x00\x00'
p107
tp108
Rp109
g1
(g5
S'\x1e\x00\x00\x00\x00\x00\x00\x00'
p110
tp111
Rp112
g1
(g5
S'\x19\x00\x00\x00\x00\x00\x00\x00'
p113
tp114
Rp115
g1
(g5
S':\x00\x00\x00\x00\x00\x00\x00'
p116
tp117
Rp118
g1
(g5
S'\x1b\x00\x00\x00\x00\x00\x00\x00'
p119
tp120
Rp121
g1
(g5
S'8\x00\x00\x00\x00\x00\x00\x00'
p122
tp123
Rp124
g1
(g5
S')\x00\x00\x00\x00\x00\x00\x00'
p125
tp126
Rp127
g1
(g5
S'\\\x00\x00\x00\x00\x00\x00\x00'
p128
tp129
Rp130
g1
(g5
S',\x00\x00\x00\x00\x00\x00\x00'
p131
tp132
Rp133
g1
(g5
S'4\x00\x00\x00\x00\x00\x00\x00'
p134
tp135
Rp136
g1
(g5
S'\x1d\x00\x00\x00\x00\x00\x00\x00'
p137
tp138
Rp139
g1
(g5
S'$\x00\x00\x00\x00\x00\x00\x00'
p140
tp141
Rp142
g1
(g5
S'=\x00\x00\x00\x00\x00\x00\x00'
p143
tp144
Rp145
g1
(g5
S'@\x00\x00\x00\x00\x00\x00\x00'
p146
tp147
Rp148
g1
(g5
S'\n\x00\x00\x00\x00\x00\x00\x00'
p149
tp150
Rp151
g1
(g5
S'Z\x00\x00\x00\x00\x00\x00\x00'
p152
tp153
Rp154
g1
(g5
S'H\x00\x00\x00\x00\x00\x00\x00'
p155
tp156
Rp157
g1
(g5
S']\x00\x00\x00\x00\x00\x00\x00'
p158
tp159
Rp160
g1
(g5
S'N\x00\x00\x00\x00\x00\x00\x00'
p161
tp162
Rp163
g1
(g5
S'(\x00\x00\x00\x00\x00\x00\x00'
p164
tp165
Rp166
g1
(g5
S'&\x00\x00\x00\x00\x00\x00\x00'
p167
tp168
Rp169
g1
(g5
S'\x17\x00\x00\x00\x00\x00\x00\x00'
p170
tp171
Rp172
g1
(g5
S'\x1a\x00\x00\x00\x00\x00\x00\x00'
p173
tp174
Rp175
g1
(g5
S'\x15\x00\x00\x00\x00\x00\x00\x00'
p176
tp177
Rp178
g1
(g5
S' \x00\x00\x00\x00\x00\x00\x00'
p179
tp180
Rp181
g1
(g5
S'V\x00\x00\x00\x00\x00\x00\x00'
p182
tp183
Rp184
g1
(g5
S'9\x00\x00\x00\x00\x00\x00\x00'
p185
tp186
Rp187
g1
(g5
S'\x18\x00\x00\x00\x00\x00\x00\x00'
p188
tp189
Rp190
g1
(g5
S'_\x00\x00\x00\x00\x00\x00\x00'
p191
tp192
Rp193
g1
(g5
S'\t\x00\x00\x00\x00\x00\x00\x00'
p194
tp195
Rp196
g1
(g5
S'*\x00\x00\x00\x00\x00\x00\x00'
p197
tp198
Rp199
g1
(g5
S"'\x00\x00\x00\x00\x00\x00\x00"
p200
tp201
Rp202
g1
(g5
S'/\x00\x00\x00\x00\x00\x00\x00'
p203
tp204
Rp205
g1
(g5
S'\x16\x00\x00\x00\x00\x00\x00\x00'
p206
tp207
Rp208
g1
(g5
S'O\x00\x00\x00\x00\x00\x00\x00'
p209
tp210
Rp211
g1
(g5
S'D\x00\x00\x00\x00\x00\x00\x00'
p212
tp213
Rp214
g1
(g5
S'\x04\x00\x00\x00\x00\x00\x00\x00'
p215
tp216
Rp217
g1
(g5
S'\x06\x00\x00\x00\x00\x00\x00\x00'
p218
tp219
Rp220
g1
(g5
S'a\x00\x00\x00\x00\x00\x00\x00'
p221
tp222
Rp223
g1
(g5
S'3\x00\x00\x00\x00\x00\x00\x00'
p224
tp225
Rp226
g1
(g5
S'Q\x00\x00\x00\x00\x00\x00\x00'
p227
tp228
Rp229
g1
(g5
S';\x00\x00\x00\x00\x00\x00\x00'
p230
tp231
Rp232
g1
(g5
S'\x05\x00\x00\x00\x00\x00\x00\x00'
p233
tp234
Rp235
g1
(g5
S'\x10\x00\x00\x00\x00\x00\x00\x00'
p236
tp237
Rp238
g1
(g5
S'\x03\x00\x00\x00\x00\x00\x00\x00'
p239
tp240
Rp241
g1
(g5
S'\x0b\x00\x00\x00\x00\x00\x00\x00'
p242
tp243
Rp244
g1
(g5
S'+\x00\x00\x00\x00\x00\x00\x00'
p245
tp246
Rp247
g1
(g5
S'T\x00\x00\x00\x00\x00\x00\x00'
p248
tp249
Rp250
g1
(g5
S'Y\x00\x00\x00\x00\x00\x00\x00'
p251
tp252
Rp253
g1
(g5
S'B\x00\x00\x00\x00\x00\x00\x00'
p254
tp255
Rp256
g1
(g5
S'b\x00\x00\x00\x00\x00\x00\x00'
p257
tp258
Rp259
g1
(g5
S'\x1f\x00\x00\x00\x00\x00\x00\x00'
p260
tp261
Rp262
g1
(g5
S'\x13\x00\x00\x00\x00\x00\x00\x00'
p263
tp264
Rp265
g1
(g5
S'>\x00\x00\x00\x00\x00\x00\x00'
p266
tp267
Rp268
g1
(g5
S'E\x00\x00\x00\x00\x00\x00\x00'
p269
tp270
Rp271
g1
(g5
S'R\x00\x00\x00\x00\x00\x00\x00'
p272
tp273
Rp274
g1
(g5
S'\x12\x00\x00\x00\x00\x00\x00\x00'
p275
tp276
Rp277
g1
(g5
S'c\x00\x00\x00\x00\x00\x00\x00'
p278
tp279
Rp280
g1
(g5
S'0\x00\x00\x00\x00\x00\x00\x00'
p281
tp282
Rp283
g1
(g5
S'5\x00\x00\x00\x00\x00\x00\x00'
p284
tp285
Rp286
g1
(g5
S'\x11\x00\x00\x00\x00\x00\x00\x00'
p287
tp288
Rp289
g1
(g5
S'\x02\x00\x00\x00\x00\x00\x00\x00'
p290
tp291
Rp292
g1
(g5
S'X\x00\x00\x00\x00\x00\x00\x00'
p293
tp294
Rp295
g1
(g5
S'1\x00\x00\x00\x00\x00\x00\x00'
p296
tp297
Rp298
g1
(g5
S'J\x00\x00\x00\x00\x00\x00\x00'
p299
tp300
Rp301
g1
(g5
S'I\x00\x00\x00\x00\x00\x00\x00'
p302
tp303
Rp304
tp305
g1
(g2
(S'f8'
p306
I0
I1
tp307
Rp308
(I3
S'<'
p309
NNNI-1
I-1
I0
tp310
bS'\x02[[\xd1\xc8\xbd\xc0@'
p311
tp312
Rp313
s(g136
g184
g67
g61
g133
g298
g124
g85
g265
g223
g109
g25
g172
g199
g274
g76
g37
g301
g211
g178
g160
g214
g58
g277
g244
g175
g262
g91
g286
g235
g157
g43
g220
g217
g106
g259
g292
g187
g70
g127
g88
g145
g34
g190
g142
g40
g163
g16
g280
g154
g52
g241
g250
g226
g64
g94
g196
g100
g271
g268
g121
g49
g169
g112
g304
g28
g10
g79
g31
g130
g193
g205
g139
g229
g13
g202
g253
g166
g283
g22
g55
g115
g73
g295
g118
g208
g19
g103
g289
g238
g151
g247
g256
g97
g46
g181
g82
g148
g232
tp314
g1
(g308
S'T^t\x91\xac\xdb\xbe@'
p315
tp316
Rp317
s(g190
g130
g145
g280
g103
g304
g106
g295
g31
g235
g88
g196
g226
g247
g55
g127
g43
g169
g211
g151
g109
g262
g25
g289
g199
g67
g193
g250
g244
g223
g13
g166
g85
g70
g256
g115
g58
g238
g22
g241
g91
g148
g202
g121
g28
g187
g100
g52
g82
g97
g283
g142
g298
g19
g268
g232
g46
g154
g163
g301
g73
g136
g157
g286
g76
g229
g37
g175
g292
g40
g265
g277
g64
g271
g10
g118
g205
g61
g79
g220
g274
g133
g208
g181
g49
g259
g184
g172
g217
g94
g112
g34
g214
g124
g178
g16
g160
g139
g253
tp318
g1
(g308
S'\xd5\xdb\x08\xbbX*\xc0@'
p319
tp320
Rp321
s(g214
g37
g229
g139
g34
g262
g274
g124
g115
g88
g19
g13
g61
g97
g112
g190
g181
g52
g25
g142
g250
g172
g220
g43
g208
g259
g253
g55
g175
g58
g157
g64
g109
g184
g28
g235
g178
g70
g289
g67
g205
g217
g265
g271
g193
g304
g151
g127
g10
g277
g199
g223
g160
g145
g76
g226
g283
g247
g46
g103
g22
g136
g238
g31
g82
g16
g163
g169
g91
g49
g292
g130
g232
g211
g121
g154
g298
g295
g40
g241
g196
g244
g268
g202
g256
g301
g100
g166
g187
g85
g148
g286
g280
g118
g94
g133
g79
g106
g73
tp322
g1
(g308
S'\xf6\xb8\xc2R\x91\xf7\xbe@'
p323
tp324
Rp325
s(g175
g253
g103
g298
g28
g211
g295
g16
g10
g286
g130
g163
g19
g160
g232
g76
g61
g115
g88
g157
g187
g289
g247
g97
g262
g205
g244
g181
g223
g214
g79
g142
g91
g25
g166
g178
g58
g208
g292
g13
g31
g52
g190
g46
g280
g49
g241
g100
g109
g277
g238
g304
g301
g226
g34
g172
g250
g106
g169
g271
g133
g73
g64
g40
g67
g151
g136
g229
g43
g22
g94
g193
g199
g184
g145
g55
g283
g127
g148
g121
g154
g37
g256
g259
g268
g202
g235
g274
g139
g70
g118
g124
g217
g220
g196
g85
g82
g112
g265
tp326
g1
(g308
S'\x96\xc9\x1f!\xcb\xa9\xbf@'
p327
tp328
Rp329
s(g52
g118
g124
g10
g73
g280
g277
g76
g262
g130
g271
g22
g82
g241
g142
g145
g184
g217
g220
g214
g292
g301
g115
g100
g154
g199
g178
g37
g205
g226
g31
g43
g25
g259
g229
g247
g232
g250
g79
g166
g94
g16
g97
g211
g265
g85
g28
g70
g34
g160
g181
g169
g244
g157
g106
g151
g58
g148
g202
g238
g136
g268
g208
g256
g112
g103
g298
g61
g274
g139
g49
g196
g175
g187
g88
g295
g121
g172
g253
g109
g289
g286
g304
g91
g223
g190
g67
g46
g163
g283
g19
g193
g133
g127
g64
g13
g235
g55
g40
tp330
g1
(g308
S'\x15;\xb0\xf1\x1aD\xc1@'
p331
tp332
Rp333
s(g52
g85
g244
g184
g97
g235
g169
g136
g202
g253
g172
g94
g82
g148
g76
g79
g163
g46
g151
g277
g220
g247
g25
g292
g157
g130
g16
g295
g262
g109
g166
g298
g304
g181
g67
g58
g115
g73
g223
g19
g154
g145
g286
g160
g271
g229
g193
g43
g187
g61
g259
g265
g175
g217
g40
g139
g238
g211
g28
g112
g301
g22
g124
g37
g199
g142
g280
g55
g205
g10
g91
g274
g208
g49
g190
g13
g250
g70
g256
g88
g178
g268
g106
g103
g64
g31
g121
g127
g100
g133
g226
g118
g34
g214
g289
g241
g232
g283
g196
tp334
g1
(g308
S'<\xfe\x88l\xcd\xd1\xbd@'
p335
tp336
Rp337
s(g292
g205
g85
g88
g55
g151
g196
g154
g43
g103
g139
g64
g277
g241
g268
g28
g247
g157
g169
g163
g271
g304
g211
g100
g124
g136
g280
g226
g166
g145
g181
g16
g202
g178
g184
g301
g274
g259
g199
g250
g160
g127
g289
g262
g76
g283
g187
g49
g286
g253
g172
g220
g10
g91
g73
g175
g121
g232
g256
g217
g112
g97
g133
g13
g235
g295
g40
g238
g52
g118
g148
g142
g19
g94
g61
g82
g34
g70
g31
g25
g214
g67
g265
g46
g37
g244
g79
g22
g208
g298
g130
g115
g223
g106
g109
g193
g229
g58
g190
tp338
g1
(g308
S'\x15Zb\xde{n\xc0@'
p339
tp340
Rp341
s(g160
g178
g271
g127
g181
g25
g250
g136
g43
g49
g187
g169
g79
g112
g31
g247
g94
g121
g163
g223
g265
g88
g10
g34
g16
g286
g82
g166
g40
g139
g70
g217
g115
g298
g184
g259
g238
g100
g28
g97
g277
g148
g19
g193
g208
g52
g154
g205
g22
g211
g283
g157
g76
g13
g289
g61
g202
g256
g190
g145
g118
g130
g301
g91
g235
g196
g295
g292
g64
g46
g67
g73
g172
g262
g226
g37
g103
g124
g214
g304
g280
g58
g244
g253
g109
g175
g241
g268
g85
g133
g142
g199
g151
g232
g55
g229
g220
g274
g106
tp342
g1
(g308
S'\x1c\x9c\xd1z\xcf\xdf\xbf@'
p343
tp344
Rp345
s(g133
g34
g247
g292
g124
g283
g289
g196
g229
g286
g52
g181
g301
g172
g64
g238
g208
g295
g241
g163
g94
g85
g262
g31
g97
g298
g103
g277
g160
g184
g88
g79
g214
g235
g304
g13
g28
g139
g67
g259
g151
g10
g190
g226
g115
g175
g250
g193
g112
g232
g130
g46
g61
g256
g268
g109
g205
g58
g265
g142
g199
g187
g82
g16
g73
g118
g40
g157
g100
g55
g106
g148
g202
g22
g145
g253
g217
g154
g43
g19
g274
g271
g76
g166
g244
g169
g70
g49
g37
g211
g220
g91
g178
g121
g223
g280
g25
g127
g136
tp346
g1
(g308
S'%\xfd\x0e\xf2@\xf2\xbf@'
p347
tp348
Rp349
s(g250
g109
g262
g217
g175
g283
g196
g256
g103
g76
g46
g199
g226
g238
g292
g187
g268
g31
g289
g106
g298
g295
g193
g166
g202
g154
g151
g124
g148
g70
g112
g58
g82
g259
g115
g286
g139
g223
g22
g145
g73
g163
g253
g34
g229
g247
g211
g43
g169
g190
g88
g121
g16
g157
g184
g241
g61
g244
g208
g280
g100
g304
g277
g271
g79
g52
g142
g10
g301
g19
g94
g37
g214
g130
g133
g181
g265
g49
g64
g160
g232
g178
g97
g220
g55
g274
g85
g205
g91
g25
g127
g67
g40
g172
g118
g28
g136
g235
g13
tp350
g1
(g308
S'\xa2V\x07\x1a#\x02\xc1@'
p351
tp352
Rp353
s(g151
g31
g277
g118
g232
g136
g37
g154
g283
g88
g256
g142
g184
g298
g67
g13
g274
g130
g196
g250
g58
g181
g238
g34
g76
g145
g187
g160
g40
g103
g28
g235
g226
g25
g211
g199
g22
g262
g61
g253
g259
g292
g148
g97
g304
g133
g244
g301
g91
g202
g178
g100
g166
g64
g193
g127
g190
g52
g106
g169
g79
g121
g289
g286
g175
g43
g214
g139
g268
g55
g208
g94
g19
g124
g271
g205
g229
g220
g109
g85
g70
g10
g280
g115
g49
g73
g46
g172
g223
g247
g16
g217
g82
g112
g157
g241
g295
g265
g163
tp354
g1
(g308
S'\x049]\xaa\xa5\xe5\xc0@'
p355
tp356
Rp357
s(g289
g262
g154
g64
g211
g220
g229
g157
g175
g277
g235
g76
g199
g301
g130
g181
g193
g166
g85
g139
g19
g106
g109
g169
g148
g37
g31
g70
g292
g184
g238
g22
g163
g28
g61
g202
g244
g271
g73
g232
g256
g67
g79
g13
g151
g259
g208
g196
g82
g34
g178
g226
g214
g100
g58
g172
g241
g46
g145
g115
g268
g55
g16
g88
g103
g274
g136
g127
g187
g304
g112
g40
g94
g97
g253
g43
g283
g91
g118
g205
g25
g52
g121
g286
g280
g49
g250
g142
g298
g190
g247
g265
g160
g217
g223
g295
g133
g10
g124
tp358
g1
(g308
S'\x8b\xca\x9f-7X\xc1@'
p359
tp360
Rp361
s(g295
g124
g178
g82
g118
g247
g256
g214
g106
g304
g88
g280
g127
g19
g229
g286
g13
g64
g163
g103
g61
g58
g121
g145
g25
g190
g151
g49
g133
g46
g31
g37
g202
g79
g154
g148
g43
g277
g22
g241
g226
g172
g85
g142
g187
g16
g97
g91
g181
g109
g157
g250
g52
g40
g244
g175
g136
g112
g193
g73
g217
g262
g211
g34
g160
g67
g289
g130
g298
g259
g208
g10
g169
g253
g70
g196
g292
g184
g301
g139
g220
g232
g205
g235
g28
g76
g199
g283
g115
g238
g271
g274
g166
g94
g268
g100
g223
g55
g265
tp362
g1
(g308
S'\x8d@\xb2\xae\x93v\xc0@'
p363
tp364
Rp365
s(g70
g280
g229
g292
g241
g235
g61
g169
g214
g277
g145
g94
g283
g58
g154
g97
g190
g139
g274
g19
g130
g91
g163
g115
g133
g166
g184
g103
g178
g199
g226
g175
g298
g10
g40
g109
g286
g31
g217
g151
g223
g289
g76
g208
g256
g211
g202
g304
g196
g28
g67
g262
g85
g112
g16
g82
g22
g124
g232
g157
g271
g49
g142
g253
g187
g244
g106
g301
g118
g55
g193
g247
g64
g52
g295
g181
g25
g43
g259
g250
g88
g220
g121
g100
g13
g268
g37
g205
g160
g148
g46
g34
g127
g136
g79
g265
g172
g73
g238
tp366
g1
(g308
S'\x99\x95-\x191%\xbf@'
p367
tp368
Rp369
s(g175
g169
g292
g88
g178
g91
g76
g121
g196
g64
g85
g268
g145
g232
g52
g262
g223
g106
g10
g103
g55
g148
g226
g220
g211
g118
g136
g298
g247
g229
g289
g187
g127
g70
g259
g34
g235
g265
g217
g19
g244
g280
g139
g304
g253
g28
g301
g58
g271
g79
g202
g190
g214
g274
g241
g205
g112
g40
g130
g193
g94
g61
g295
g172
g109
g166
g49
g31
g25
g46
g184
g16
g181
g163
g142
g208
g157
g199
g154
g238
g97
g37
g67
g124
g43
g250
g283
g133
g100
g256
g286
g151
g22
g277
g73
g115
g82
g13
g160
tp370
g1
(g308
S'h\xab\xf7\xf4!\x83\xc0@'
p371
tp372
Rp373
s(g85
g100
g205
g226
g43
g88
g193
g46
g61
g34
g37
g190
g58
g19
g256
g280
g112
g235
g76
g133
g127
g115
g73
g55
g145
g97
g217
g265
g295
g103
g157
g10
g13
g223
g118
g91
g22
g187
g136
g106
g232
g259
g274
g301
g130
g82
g160
g154
g286
g214
g166
g181
g229
g202
g241
g109
g79
g211
g199
g304
g247
g292
g220
g94
g70
g142
g124
g25
g244
g172
g184
g289
g277
g28
g262
g121
g148
g196
g139
g40
g67
g271
g169
g268
g64
g175
g16
g208
g250
g253
g283
g178
g151
g163
g31
g238
g49
g52
g298
tp374
g1
(g308
S"\xf6Q\x86'\xe5d\xbf@"
p375
tp376
Rp377
s(g181
g202
g118
g97
g226
g34
g70
g253
g289
g22
g148
g238
g73
g211
g169
g217
g157
g145
g199
g79
g205
g250
g175
g283
g61
g295
g43
g94
g229
g223
g298
g49
g88
g220
g130
g235
g13
g172
g178
g190
g31
g160
g193
g256
g139
g241
g40
g268
g115
g304
g151
g163
g124
g19
g262
g274
g25
g214
g16
g52
g76
g100
g133
g112
g208
g184
g244
g187
g28
g55
g64
g265
g166
g142
g46
g277
g301
g232
g259
g136
g37
g271
g121
g292
g196
g109
g247
g67
g127
g58
g154
g85
g106
g103
g280
g10
g286
g91
g82
tp378
g1
(g308
S'\x17\xaf\xe9w\xb2Q\xc1@'
p379
tp380
Rp381
s(g187
g223
g58
g268
g49
g304
g259
g130
g199
g295
g139
g40
g55
g37
g214
g76
g208
g301
g154
g10
g256
g271
g73
g226
g196
g94
g286
g220
g43
g157
g235
g169
g22
g13
g217
g289
g292
g202
g193
g136
g277
g88
g103
g25
g79
g151
g181
g64
g31
g115
g28
g190
g106
g67
g229
g70
g109
g61
g253
g85
g112
g184
g241
g160
g100
g91
g274
g142
g298
g97
g19
g145
g52
g250
g118
g205
g280
g283
g247
g133
g238
g127
g244
g172
g178
g265
g46
g163
g166
g16
g232
g124
g175
g82
g262
g34
g121
g148
g211
tp382
g1
(g308
S'\x1b\xe4\xa9\xe5\x1b\x84\xbf@'
p383
tp384
Rp385
s(g25
g49
g148
g139
g244
g184
g277
g109
g280
g154
g46
g268
g55
g100
g220
g121
g190
g94
g274
g214
g166
g196
g124
g145
g250
g85
g304
g229
g142
g34
g64
g22
g271
g151
g181
g232
g106
g73
g205
g43
g187
g130
g157
g202
g103
g28
g208
g256
g91
g238
g10
g247
g175
g292
g169
g178
g127
g79
g226
g136
g58
g61
g286
g118
g253
g265
g67
g298
g37
g112
g97
g235
g13
g160
g301
g88
g217
g223
g211
g82
g52
g163
g283
g19
g115
g70
g133
g16
g40
g31
g262
g172
g193
g241
g76
g295
g289
g199
g259
tp386
g1
(g308
S'A\xd5\x1c\x82\xdaV\xc0@'
p387
tp388
Rp389
s(g142
g94
g133
g100
g70
g58
g262
g79
g244
g208
g13
g304
g40
g43
g31
g157
g112
g166
g229
g277
g202
g292
g136
g271
g160
g34
g139
g55
g130
g109
g247
g127
g289
g295
g298
g211
g184
g118
g280
g187
g121
g253
g220
g67
g52
g10
g82
g46
g172
g76
g250
g115
g61
g169
g181
g238
g145
g28
g49
g199
g268
g175
g193
g106
g214
g235
g241
g16
g163
g205
g190
g148
g265
g226
g196
g25
g91
g283
g223
g256
g64
g154
g85
g73
g22
g274
g97
g259
g37
g217
g103
g286
g232
g151
g88
g178
g124
g19
g301
tp390
g1
(g308
S'\xf67hf\xcc}\xc0@'
p391
tp392
Rp393
s(g46
g58
g217
g169
g109
g181
g208
g250
g25
g274
g115
g253
g286
g247
g40
g163
g211
g28
g256
g280
g283
g85
g94
g295
g82
g64
g205
g145
g52
g127
g118
g73
g79
g103
g235
g151
g271
g277
g133
g148
g262
g34
g172
g214
g166
g31
g19
g289
g61
g244
g121
g292
g157
g223
g238
g190
g160
g88
g265
g184
g304
g202
g100
g196
g16
g49
g259
g229
g187
g22
g298
g241
g139
g136
g220
g76
g268
g232
g301
g154
g97
g193
g226
g55
g199
g175
g142
g67
g106
g70
g37
g13
g178
g91
g10
g43
g130
g124
g112
tp394
g1
(g308
S'\xa4_w\x11(\xa9\xc1@'
p395
tp396
Rp397
s(g292
g169
g115
g55
g205
g289
g265
g166
g193
g211
g226
g190
g232
g250
g82
g298
g100
g157
g85
g49
g280
g73
g217
g91
g37
g61
g196
g187
g214
g241
g160
g112
g79
g109
g178
g223
g133
g13
g268
g118
g64
g256
g67
g22
g172
g244
g151
g271
g40
g148
g277
g283
g181
g286
g238
g139
g28
g31
g295
g88
g145
g304
g301
g16
g94
g58
g70
g247
g25
g154
g46
g253
g106
g220
g202
g175
g274
g103
g130
g142
g229
g97
g34
g259
g184
g76
g208
g127
g262
g121
g199
g235
g43
g136
g163
g10
g52
g124
g19
tp398
g1
(g308
S'\xab\xa2\xc8\xff6\xc2\xc0@'
p399
tp400
Rp401
s(g301
g211
g184
g37
g232
g109
g67
g178
g265
g280
g253
g226
g100
g175
g94
g277
g22
g10
g196
g154
g73
g79
g292
g283
g274
g229
g76
g190
g217
g193
g31
g172
g214
g220
g148
g25
g169
g142
g136
g58
g250
g55
g28
g298
g259
g19
g160
g124
g70
g256
g13
g286
g64
g163
g145
g118
g46
g43
g97
g127
g208
g181
g241
g238
g289
g202
g52
g223
g187
g205
g16
g49
g262
g247
g268
g106
g115
g133
g235
g295
g61
g88
g166
g40
g157
g121
g34
g271
g244
g151
g130
g85
g112
g103
g304
g82
g139
g91
g199
tp402
g1
(g308
S'\x877\x07X^\xff\xbd@'
p403
tp404
Rp405
s(g286
g34
g103
g139
g43
g91
g175
g247
g160
g211
g49
g25
g166
g208
g178
g241
g259
g130
g88
g124
g277
g136
g304
g76
g10
g106
g61
g196
g85
g121
g214
g133
g73
g265
g64
g142
g148
g181
g82
g220
g187
g109
g283
g151
g31
g67
g46
g274
g157
g115
g172
g256
g19
g271
g193
g244
g154
g253
g100
g262
g268
g58
g190
g232
g202
g292
g13
g97
g79
g184
g145
g22
g229
g199
g250
g16
g40
g52
g163
g295
g223
g226
g238
g235
g94
g298
g280
g289
g37
g112
g301
g205
g217
g28
g55
g118
g169
g70
g127
tp406
g1
(g308
S'x\x85s\xfc\x8cS\xbf@'
p407
tp408
Rp409
s(g133
g13
g226
g193
g34
g208
g280
g85
g160
g253
g112
g25
g82
g16
g52
g175
g91
g130
g49
g127
g154
g229
g79
g220
g64
g286
g214
g145
g304
g292
g55
g103
g274
g283
g247
g166
g262
g259
g202
g139
g121
g301
g199
g241
g43
g67
g181
g250
g94
g196
g73
g256
g295
g223
g232
g235
g205
g268
g238
g19
g10
g172
g76
g118
g100
g31
g28
g184
g265
g289
g244
g106
g157
g298
g190
g136
g46
g115
g151
g109
g277
g169
g217
g22
g88
g142
g178
g163
g40
g70
g97
g187
g211
g271
g61
g37
g124
g58
g148
tp410
g1
(g308
S"\x9a\x1b\x8f'\xdc\xa3\xc0@"
p411
tp412
Rp413
s(g85
g259
g97
g73
g268
g223
g226
g10
g256
g220
g40
g115
g172
g205
g211
g55
g235
g103
g157
g70
g202
g94
g139
g64
g241
g298
g61
g76
g52
g118
g46
g190
g238
g244
g49
g169
g16
g133
g229
g295
g301
g67
g232
g253
g127
g142
g106
g43
g82
g91
g274
g262
g22
g154
g100
g286
g121
g196
g124
g271
g250
g166
g199
g163
g175
g19
g289
g25
g292
g214
g79
g37
g187
g58
g184
g283
g208
g151
g304
g265
g148
g28
g277
g193
g160
g34
g31
g247
g13
g109
g178
g112
g88
g217
g145
g130
g280
g181
g136
tp414
g1
(g308
S'\xf9q\xf7X\x1c\xf6\xbe@'
p415
tp416
Rp417
s(g190
g34
g217
g76
g181
g82
g244
g187
g79
g166
g163
g46
g136
g52
g133
g301
g160
g232
g247
g286
g22
g223
g70
g49
g157
g208
g127
g265
g142
g202
g268
g205
g61
g88
g124
g85
g277
g250
g154
g238
g259
g274
g40
g13
g199
g118
g28
g37
g169
g64
g109
g280
g184
g172
g304
g31
g16
g19
g298
g229
g292
g283
g73
g139
g151
g106
g10
g295
g271
g145
g58
g130
g100
g103
g214
g97
g196
g94
g112
g241
g148
g262
g193
g253
g220
g235
g91
g211
g115
g175
g256
g226
g55
g43
g25
g121
g178
g289
g67
tp418
g1
(g308
S'#`\x8c\xde\x11b\xc0@'
p419
tp420
Rp421
s(g214
g118
g190
g145
g46
g115
g271
g220
g160
g142
g295
g169
g94
g85
g235
g70
g58
g304
g103
g124
g274
g37
g166
g136
g202
g100
g73
g10
g79
g238
g64
g106
g232
g217
g76
g82
g256
g91
g25
g49
g259
g19
g247
g199
g148
g61
g112
g277
g16
g226
g130
g253
g172
g223
g97
g121
g67
g88
g289
g250
g127
g40
g109
g28
g241
g34
g154
g13
g262
g151
g157
g133
g163
g139
g211
g187
g268
g205
g298
g196
g229
g43
g31
g52
g178
g292
g265
g184
g286
g280
g193
g244
g301
g208
g22
g55
g175
g181
g283
tp422
g1
(g308
S'\x94\xce\x98\xa2T\xb8\xc0@'
p423
tp424
Rp425
s(g250
g298
g304
g181
g37
g247
g193
g172
g292
g259
g178
g64
g76
g16
g127
g274
g211
g70
g265
g109
g130
g166
g268
g88
g241
g271
g31
g112
g169
g25
g220
g163
g199
g79
g217
g34
g43
g235
g196
g145
g46
g115
g121
g253
g175
g154
g244
g85
g184
g55
g301
g202
g229
g118
g205
g160
g106
g187
g49
g280
g67
g190
g208
g136
g10
g22
g286
g94
g13
g139
g133
g226
g283
g157
g295
g97
g91
g232
g148
g103
g214
g19
g151
g28
g73
g52
g277
g40
g58
g61
g124
g142
g82
g100
g223
g238
g289
g256
g262
tp426
g1
(g308
S'\xa7\xb0\x93\xfe\xebn\xc0@'
p427
tp428
Rp429
s(g172
g19
g88
g232
g277
g301
g13
g283
g121
g184
g97
g235
g163
g214
g109
g115
g52
g37
g16
g229
g106
g100
g265
g268
g58
g28
g46
g61
g238
g49
g220
g223
g124
g250
g169
g247
g55
g130
g175
g94
g262
g274
g193
g64
g202
g25
g166
g82
g190
g208
g253
g91
g157
g118
g10
g178
g271
g85
g289
g295
g304
g187
g73
g259
g103
g241
g199
g226
g22
g181
g43
g205
g280
g127
g79
g286
g70
g67
g142
g34
g40
g112
g160
g244
g292
g148
g256
g139
g76
g151
g154
g31
g298
g217
g196
g211
g133
g145
g136
tp430
g1
(g308
S'\x85]\x97\xbfbj\xc1@'
p431
tp432
Rp433
s(g130
g292
g271
g19
g127
g49
g121
g37
g88
g241
g277
g94
g13
g43
g142
g250
g16
g244
g124
g286
g232
g202
g115
g262
g283
g28
g247
g70
g172
g256
g298
g64
g85
g265
g289
g208
g235
g55
g211
g58
g178
g205
g175
g274
g220
g151
g46
g97
g229
g145
g193
g163
g304
g187
g52
g148
g67
g259
g79
g76
g109
g10
g226
g34
g238
g139
g268
g199
g61
g196
g181
g82
g169
g190
g160
g118
g25
g112
g73
g106
g184
g100
g157
g280
g295
g154
g22
g166
g31
g301
g223
g136
g103
g40
g217
g253
g133
g214
g91
tp434
g1
(g308
S'\x86\xbdO\xeb\x88\xde\xbd@'
p435
tp436
Rp437
s(g289
g103
g286
g244
g241
g112
g76
g217
g46
g10
g199
g43
g292
g211
g151
g187
g97
g253
g181
g85
g175
g13
g301
g70
g250
g40
g235
g223
g163
g58
g49
g196
g52
g202
g19
g142
g37
g154
g220
g31
g205
g262
g148
g79
g214
g226
g94
g271
g73
g259
g178
g238
g268
g295
g190
g130
g304
g208
g25
g184
g193
g166
g82
g274
g118
g265
g109
g145
g124
g169
g283
g115
g67
g280
g232
g28
g55
g139
g160
g16
g88
g133
g136
g247
g298
g91
g64
g121
g34
g229
g127
g277
g172
g61
g157
g100
g22
g256
g106
tp438
g1
(g308
S'\xa8\xcco{g\x15\xc0@'
p439
tp440
Rp441
s(g112
g295
g190
g238
g127
g199
g139
g151
g76
g232
g142
g169
g34
g184
g97
g268
g157
g82
g181
g67
g256
g118
g244
g61
g253
g10
g121
g289
g196
g304
g148
g130
g202
g28
g166
g175
g262
g73
g109
g298
g40
g46
g283
g52
g211
g178
g154
g88
g70
g136
g106
g124
g31
g205
g13
g163
g64
g115
g223
g226
g172
g235
g217
g49
g16
g22
g286
g160
g277
g220
g37
g79
g43
g271
g187
g208
g25
g265
g280
g55
g229
g133
g100
g247
g91
g241
g145
g103
g193
g250
g85
g292
g94
g274
g58
g214
g19
g259
g301
tp442
g1
(g308
S'P\xd1\xf4\xe5\xd0\x16\xbf@'
p443
tp444
Rp445
s(g64
g97
g13
g292
g22
g70
g49
g208
g154
g304
g268
g43
g145
g91
g31
g115
g247
g217
g235
g199
g205
g67
g265
g157
g79
g16
g121
g259
g103
g184
g262
g202
g178
g298
g286
g253
g211
g190
g139
g181
g109
g25
g133
g52
g238
g142
g172
g37
g271
g88
g241
g175
g61
g196
g127
g289
g130
g19
g274
g34
g106
g220
g295
g100
g40
g160
g94
g58
g73
g55
g76
g256
g280
g250
g46
g283
g28
g10
g223
g301
g82
g151
g187
g244
g112
g169
g229
g148
g85
g118
g124
g214
g136
g193
g166
g226
g232
g277
g163
tp446
g1
(g308
S'\x17\xb4\x10K%\x8c\xc0@'
p447
tp448
Rp449
s(g127
g292
g61
g40
g97
g109
g76
g232
g238
g163
g118
g283
g271
g139
g256
g28
g70
g142
g235
g103
g301
g25
g298
g73
g268
g202
g262
g241
g91
g88
g85
g178
g31
g208
g247
g265
g55
g22
g151
g46
g94
g211
g157
g226
g277
g52
g148
g289
g286
g160
g181
g124
g16
g199
g172
g100
g169
g133
g130
g106
g121
g223
g250
g205
g190
g304
g115
g175
g214
g13
g280
g136
g229
g154
g10
g274
g112
g67
g145
g64
g220
g19
g82
g184
g43
g244
g49
g166
g79
g259
g196
g253
g187
g193
g37
g295
g217
g58
g34
tp450
g1
(g308
S'e\\\xdadYt\xc0@'
p451
tp452
Rp453
s(g88
g250
g22
g40
g160
g37
g232
g259
g226
g142
g190
g295
g10
g16
g157
g253
g67
g28
g211
g133
g217
g91
g178
g256
g118
g82
g148
g55
g64
g286
g292
g76
g247
g196
g34
g265
g289
g73
g154
g184
g181
g271
g244
g106
g298
g100
g139
g109
g235
g268
g127
g25
g193
g79
g124
g121
g238
g220
g304
g202
g46
g52
g13
g214
g130
g31
g199
g187
g205
g103
g43
g223
g136
g19
g70
g301
g112
g283
g274
g49
g61
g58
g175
g85
g241
g169
g172
g166
g94
g97
g229
g262
g115
g145
g151
g163
g280
g208
g277
tp454
g1
(g308
S'\xbe\xfdX\xc8\xe2&\xc1@'
p455
tp456
Rp457
s(g157
g46
g295
g127
g151
g211
g301
g148
g220
g283
g271
g145
g100
g202
g103
g97
g130
g280
g154
g244
g232
g181
g115
g34
g52
g277
g136
g304
g142
g79
g274
g253
g37
g169
g205
g259
g31
g223
g106
g229
g76
g217
g247
g55
g58
g16
g133
g163
g118
g187
g265
g109
g139
g10
g25
g112
g67
g40
g214
g190
g256
g226
g196
g85
g193
g172
g289
g94
g262
g64
g49
g43
g268
g73
g121
g184
g235
g19
g178
g22
g250
g292
g208
g238
g199
g166
g175
g61
g70
g160
g91
g286
g82
g88
g13
g241
g28
g124
g298
tp458
g1
(g308
S'\x01\xe8f\xa5\x1d\xb0\xc0@'
p459
tp460
Rp461
s(g55
g259
g43
g139
g178
g304
g58
g172
g235
g274
g217
g22
g262
g13
g64
g124
g16
g196
g130
g109
g181
g250
g97
g256
g238
g145
g208
g247
g211
g61
g67
g193
g268
g19
g136
g295
g88
g106
g175
g85
g157
g154
g115
g37
g151
g244
g271
g283
g94
g223
g184
g205
g190
g166
g199
g34
g241
g160
g229
g298
g25
g280
g148
g103
g133
g289
g163
g28
g301
g187
g169
g253
g100
g142
g292
g127
g118
g214
g79
g31
g91
g82
g265
g40
g286
g49
g10
g220
g52
g232
g226
g121
g46
g70
g76
g73
g202
g112
g277
tp462
g1
(g308
S'\xcco\x15\xe3\x82\x7f\xc0@'
p463
tp464
Rp465
s(g193
g268
g88
g229
g121
g91
g241
g127
g175
g169
g31
g256
g43
g259
g226
g109
g238
g67
g211
g106
g34
g208
g82
g181
g199
g133
g16
g166
g148
g136
g49
g205
g142
g253
g22
g118
g223
g301
g271
g25
g58
g247
g250
g115
g160
g79
g154
g202
g187
g28
g130
g46
g184
g103
g37
g85
g235
g304
g214
g217
g70
g283
g55
g151
g61
g190
g286
g274
g196
g178
g172
g40
g73
g265
g157
g52
g262
g112
g163
g280
g277
g232
g97
g124
g220
g139
g76
g298
g289
g19
g13
g94
g145
g292
g10
g64
g295
g244
g100
tp466
g1
(g308
S'u\xe9\xbe\xe71^\xc1@'
p467
tp468
Rp469
s(g190
g19
g136
g64
g130
g286
g124
g229
g94
g115
g10
g172
g106
g61
g250
g268
g91
g121
g241
g97
g157
g271
g88
g235
g103
g214
g274
g175
g259
g127
g148
g82
g34
g256
g169
g79
g181
g292
g208
g178
g70
g184
g295
g151
g283
g166
g211
g304
g46
g22
g199
g202
g118
g193
g73
g112
g43
g55
g85
g196
g238
g247
g232
g58
g67
g109
g187
g28
g298
g160
g16
g253
g49
g139
g142
g37
g220
g301
g265
g133
g154
g205
g76
g289
g163
g52
g40
g223
g280
g217
g25
g31
g145
g262
g13
g226
g277
g100
g244
tp470
g1
(g308
S'\xd3rY\xe11\xaa\xc0@'
p471
tp472
Rp473
s(g88
g61
g19
g187
g172
g238
g106
g127
g280
g175
g244
g268
g91
g253
g259
g190
g31
g49
g142
g199
g130
g94
g247
g52
g28
g235
g274
g37
g289
g133
g214
g262
g295
g70
g169
g85
g73
g103
g286
g16
g166
g193
g292
g148
g112
g34
g115
g55
g202
g232
g205
g208
g160
g79
g256
g223
g196
g82
g277
g163
g265
g100
g124
g76
g217
g64
g157
g241
g220
g145
g178
g229
g226
g97
g67
g13
g22
g301
g184
g250
g118
g304
g58
g139
g181
g25
g211
g154
g10
g298
g151
g283
g46
g43
g271
g40
g136
g109
g121
tp474
g1
(g308
S'_\xc8<\xdf\x98\xd1\xc0@'
p475
tp476
Rp477
s(g118
g94
g178
g217
g286
g73
g199
g223
g19
g193
g292
g253
g79
g289
g283
g88
g196
g184
g169
g244
g202
g40
g163
g46
g100
g28
g301
g175
g229
g37
g85
g148
g91
g10
g277
g274
g103
g109
g250
g151
g247
g22
g139
g220
g112
g136
g271
g76
g49
g64
g31
g160
g235
g304
g133
g13
g226
g295
g67
g211
g115
g157
g265
g262
g34
g70
g232
g145
g127
g205
g106
g181
g268
g280
g166
g55
g154
g82
g121
g16
g130
g208
g142
g241
g61
g256
g259
g97
g25
g43
g52
g58
g298
g190
g124
g214
g172
g238
g187
tp478
g1
(g308
S'\x0f\xf0q"\xb5\xa4\xc0@'
p479
tp480
Rp481
s(g262
g193
g235
g85
g31
g118
g115
g100
g52
g79
g103
g298
g121
g238
g259
g286
g136
g229
g61
g40
g166
g139
g25
g217
g280
g88
g49
g133
g187
g112
g271
g97
g22
g274
g223
g268
g253
g19
g190
g76
g28
g64
g124
g127
g160
g13
g73
g208
g106
g109
g37
g196
g226
g70
g94
g256
g163
g157
g214
g220
g283
g43
g34
g211
g130
g46
g91
g265
g145
g247
g16
g232
g142
g250
g277
g205
g67
g184
g304
g58
g172
g169
g292
g202
g199
g10
g295
g154
g241
g82
g151
g301
g244
g148
g55
g181
g178
g175
g289
tp482
g1
(g308
S'5$\xcd\xbc\xc6w\xc0@'
p483
tp484
Rp485
s(g16
g160
g130
g223
g298
g265
g184
g268
g22
g277
g85
g214
g217
g244
g187
g133
g259
g211
g202
g58
g13
g97
g175
g226
g127
g274
g220
g124
g247
g304
g250
g241
g172
g73
g70
g262
g190
g163
g253
g112
g169
g292
g43
g82
g40
g166
g256
g106
g178
g100
g76
g46
g67
g286
g79
g196
g208
g34
g118
g181
g229
g10
g136
g49
g142
g289
g238
g199
g115
g55
g19
g52
g25
g28
g139
g193
g109
g157
g31
g154
g151
g301
g235
g88
g145
g280
g37
g148
g121
g295
g64
g205
g271
g232
g91
g94
g103
g283
g61
tp486
g1
(g308
S'\xc7\x13\xb8/\xe2|\xc0@'
p487
tp488
Rp489
s(g79
g268
g127
g124
g52
g25
g31
g280
g166
g76
g301
g145
g187
g22
g70
g130
g271
g121
g109
g229
g157
g277
g262
g289
g151
g37
g286
g244
g208
g256
g19
g118
g163
g214
g265
g160
g292
g61
g181
g283
g205
g154
g115
g172
g133
g85
g91
g100
g34
g247
g103
g217
g136
g241
g169
g148
g235
g298
g10
g253
g184
g94
g82
g97
g67
g40
g190
g220
g13
g28
g226
g139
g64
g199
g250
g232
g46
g304
g43
g211
g55
g142
g193
g88
g112
g238
g16
g202
g178
g259
g223
g106
g196
g175
g58
g49
g295
g274
g73
tp490
g1
(g308
S'pT\x81+k\xcd\xc0@'
p491
tp492
Rp493
s(g283
g166
g130
g235
g109
g73
g61
g205
g37
g214
g238
g31
g49
g25
g91
g40
g295
g172
g181
g241
g76
g55
g22
g34
g64
g142
g157
g115
g256
g112
g196
g211
g79
g58
g19
g301
g259
g127
g124
g286
g220
g274
g253
g175
g151
g85
g97
g223
g43
g271
g265
g121
g178
g103
g247
g292
g163
g193
g199
g94
g187
g148
g244
g190
g250
g304
g208
g280
g160
g70
g145
g229
g100
g226
g118
g277
g169
g217
g139
g232
g28
g10
g262
g202
g136
g106
g13
g16
g268
g298
g88
g82
g52
g289
g133
g184
g46
g67
g154
tp494
g1
(g308
S'4Ge\xd2\x0bm\xc0@'
p495
tp496
Rp497
s(g295
g247
g82
g283
g49
g88
g259
g235
g19
g274
g76
g196
g223
g205
g106
g202
g166
g34
g148
g43
g220
g232
g265
g268
g91
g271
g118
g154
g244
g112
g193
g124
g277
g139
g262
g187
g40
g304
g73
g85
g115
g28
g172
g22
g160
g214
g46
g79
g10
g226
g103
g178
g31
g292
g256
g229
g37
g121
g169
g109
g250
g142
g127
g64
g61
g16
g67
g58
g217
g301
g133
g208
g100
g52
g298
g157
g190
g145
g163
g94
g199
g280
g70
g13
g184
g241
g238
g175
g253
g130
g25
g97
g181
g286
g289
g55
g151
g136
g211
tp498
g1
(g308
S'\xa3G@]\xdb\xca\xc0@'
p499
tp500
Rp501
s(g187
g277
g73
g10
g22
g238
g91
g211
g28
g25
g232
g136
g196
g214
g154
g19
g259
g202
g271
g31
g127
g160
g49
g157
g145
g286
g13
g169
g223
g103
g40
g253
g241
g184
g61
g139
g58
g268
g295
g43
g181
g34
g16
g265
g247
g190
g118
g85
g208
g88
g64
g205
g292
g172
g82
g166
g46
g142
g94
g235
g175
g262
g163
g112
g70
g97
g148
g229
g256
g133
g178
g100
g151
g124
g250
g37
g121
g283
g109
g79
g220
g67
g115
g301
g199
g304
g289
g244
g130
g193
g55
g298
g226
g76
g217
g106
g280
g274
g52
tp502
g1
(g308
S'q\xf5\x84j\xd1\xd4\xc0@'
p503
tp504
Rp505
s(g97
g181
g235
g136
g115
g58
g241
g238
g85
g43
g79
g175
g289
g142
g211
g268
g100
g199
g112
g292
g250
g160
g274
g193
g64
g151
g280
g52
g73
g259
g124
g298
g166
g31
g37
g28
g46
g13
g130
g148
g208
g16
g103
g88
g22
g301
g217
g49
g55
g304
g247
g94
g118
g19
g67
g25
g262
g184
g121
g139
g283
g220
g172
g145
g277
g244
g187
g196
g10
g178
g133
g295
g91
g40
g163
g109
g229
g202
g286
g226
g190
g169
g253
g256
g205
g34
g157
g154
g70
g265
g76
g82
g223
g214
g232
g61
g127
g271
g106
tp506
g1
(g308
S'M\xfd\xcb@\xe5^\xbe@'
p507
tp508
Rp509
s(g163
g52
g118
g136
g202
g94
g232
g19
g304
g214
g250
g142
g55
g73
g238
g283
g139
g82
g199
g289
g70
g106
g280
g16
g22
g169
g172
g268
g115
g58
g247
g109
g112
g37
g274
g145
g160
g241
g220
g166
g295
g223
g34
g217
g127
g154
g100
g43
g262
g193
g40
g91
g148
g97
g10
g271
g124
g103
g121
g286
g67
g253
g211
g265
g178
g184
g61
g259
g64
g301
g235
g85
g28
g205
g76
g256
g175
g157
g187
g229
g292
g196
g133
g244
g25
g49
g277
g130
g226
g190
g208
g181
g46
g31
g151
g88
g79
g298
g13
tp510
g1
(g308
S'\xce^T\xce\xc0\xab\xbf@'
p511
tp512
Rp513
s(g283
g301
g157
g145
g118
g19
g106
g250
g211
g28
g136
g226
g229
g184
g115
g46
g202
g265
g67
g181
g241
g223
g22
g208
g256
g298
g292
g79
g49
g61
g100
g232
g88
g193
g190
g169
g40
g253
g130
g58
g91
g244
g247
g124
g139
g274
g154
g160
g142
g187
g109
g178
g196
g76
g214
g16
g82
g295
g25
g43
g277
g166
g199
g163
g13
g220
g205
g121
g103
g55
g64
g217
g52
g280
g37
g70
g268
g31
g10
g235
g238
g73
g286
g148
g133
g34
g127
g151
g271
g85
g97
g259
g304
g175
g262
g172
g289
g112
g94
tp514
g1
(g308
S':\xbe\t\xd9\x16P\xbf@'
p515
tp516
Rp517
s(g259
g181
g196
g199
g22
g223
g148
g250
g157
g178
g67
g304
g109
g94
g193
g238
g61
g19
g262
g289
g151
g241
g34
g253
g202
g205
g301
g79
g124
g52
g16
g64
g274
g136
g106
g55
g25
g235
g208
g58
g172
g265
g139
g187
g46
g229
g217
g292
g100
g286
g283
g190
g268
g160
g211
g76
g127
g175
g49
g298
g91
g271
g70
g13
g97
g277
g103
g220
g133
g73
g226
g37
g10
g82
g247
g280
g31
g145
g232
g154
g112
g169
g121
g43
g130
g184
g166
g214
g115
g295
g256
g40
g88
g28
g163
g142
g85
g244
g118
tp518
g1
(g308
S'\xe5\xaa\x1b\xdfx1\xbf@'
p519
tp520
Rp521
s(g79
g73
g151
g136
g64
g193
g175
g304
g46
g34
g211
g280
g106
g28
g52
g238
g43
g205
g244
g55
g262
g82
g85
g76
g277
g58
g160
g130
g148
g121
g37
g118
g223
g283
g220
g271
g199
g16
g49
g286
g217
g232
g226
g295
g133
g97
g268
g196
g289
g127
g274
g229
g94
g109
g25
g103
g181
g40
g10
g184
g202
g112
g265
g298
g292
g31
g88
g178
g163
g124
g19
g145
g301
g169
g259
g253
g154
g166
g256
g187
g214
g172
g235
g70
g13
g22
g61
g100
g115
g67
g157
g142
g241
g250
g91
g190
g247
g139
g208
tp522
g1
(g308
S'\x02\xff(\xb5\xc7K\xc0@'
p523
tp524
Rp525
s(g160
g196
g124
g232
g85
g88
g97
g244
g19
g37
g199
g121
g22
g145
g67
g10
g187
g154
g133
g235
g202
g130
g94
g184
g136
g220
g298
g175
g214
g280
g157
g58
g34
g43
g115
g106
g28
g274
g112
g208
g241
g13
g265
g259
g49
g142
g178
g91
g304
g205
g289
g73
g64
g79
g283
g55
g31
g211
g262
g148
g103
g223
g46
g229
g40
g295
g256
g286
g190
g301
g52
g238
g217
g163
g70
g25
g292
g166
g181
g247
g151
g172
g253
g82
g118
g100
g169
g61
g76
g277
g271
g268
g109
g193
g127
g16
g226
g250
g139
tp526
g1
(g308
S"\xd3!\x1aC\x15'\xc1@"
p527
tp528
Rp529
s(g175
g142
g19
g292
g34
g280
g13
g169
g10
g16
g217
g274
g133
g73
g94
g289
g151
g160
g262
g250
g115
g184
g64
g190
g238
g256
g46
g130
g286
g163
g37
g205
g49
g211
g304
g91
g226
g241
g193
g157
g76
g31
g109
g220
g244
g277
g247
g82
g214
g298
g235
g136
g196
g283
g103
g223
g25
g172
g295
g148
g259
g139
g112
g145
g88
g166
g202
g40
g268
g271
g70
g208
g121
g79
g301
g127
g58
g229
g199
g55
g22
g265
g67
g100
g106
g178
g85
g97
g61
g118
g232
g52
g253
g154
g181
g28
g124
g187
g43
tp530
g1
(g308
S'-\xbe\x9cH\xabT\xc0@'
p531
tp532
Rp533
s(g286
g31
g136
g166
g100
g106
g145
g157
g148
g220
g91
g277
g22
g142
g268
g247
g253
g232
g244
g304
g181
g241
g211
g28
g301
g10
g283
g67
g226
g133
g214
g235
g70
g40
g187
g94
g184
g82
g64
g58
g37
g163
g259
g127
g34
g172
g79
g295
g109
g19
g118
g151
g256
g61
g55
g115
g121
g13
g265
g298
g76
g196
g202
g238
g85
g262
g49
g73
g25
g223
g88
g139
g46
g280
g229
g124
g16
g205
g52
g217
g193
g175
g154
g43
g250
g112
g169
g190
g160
g103
g271
g178
g274
g208
g97
g289
g199
g130
g292
tp534
g1
(g308
S'\xa6\xcd\xaf\xe1\xcd\xe0\xc1@'
p535
tp536
Rp537
s(g103
g124
g97
g160
g49
g55
g253
g133
g85
g241
g145
g136
g217
g139
g148
g289
g211
g10
g118
g43
g52
g298
g220
g13
g100
g37
g178
g112
g226
g91
g187
g271
g280
g22
g109
g292
g67
g190
g286
g115
g193
g169
g238
g121
g154
g196
g61
g151
g172
g16
g127
g265
g64
g262
g106
g199
g46
g277
g256
g205
g250
g73
g268
g25
g214
g130
g28
g295
g19
g283
g304
g274
g235
g94
g175
g208
g31
g223
g244
g184
g301
g88
g181
g166
g157
g229
g163
g232
g70
g259
g202
g142
g58
g79
g76
g40
g247
g34
g82
tp538
g1
(g308
S'\x91o\x9e;\xa7\x04\xc0@'
p539
tp540
Rp541
s(g13
g151
g85
g280
g292
g187
g70
g154
g58
g148
g19
g175
g52
g202
g61
g286
g274
g67
g298
g295
g241
g190
g112
g301
g289
g265
g106
g142
g121
g16
g37
g244
g250
g304
g214
g160
g88
g133
g103
g283
g229
g253
g40
g55
g100
g46
g256
g73
g136
g193
g220
g181
g211
g226
g31
g10
g169
g157
g277
g259
g82
g91
g94
g28
g22
g232
g25
g64
g217
g139
g127
g79
g115
g166
g76
g208
g247
g43
g118
g172
g235
g178
g109
g271
g34
g238
g199
g130
g97
g49
g145
g268
g223
g184
g196
g262
g205
g163
g124
tp542
g1
(g308
S'\xe4\xe9\x1d\xaa\xf5\x98\xc0@'
p543
tp544
Rp545
s(g259
g295
g181
g55
g286
g241
g274
g118
g139
g64
g166
g157
g163
g10
g232
g13
g148
g253
g268
g193
g187
g100
g142
g133
g49
g271
g130
g91
g265
g205
g124
g154
g16
g169
g235
g22
g184
g109
g151
g220
g28
g94
g226
g79
g280
g61
g301
g106
g25
g262
g37
g238
g211
g88
g175
g223
g247
g127
g76
g289
g112
g121
g31
g172
g292
g229
g46
g97
g298
g115
g43
g214
g82
g178
g70
g19
g256
g58
g52
g277
g196
g190
g73
g160
g202
g217
g40
g304
g199
g244
g136
g67
g85
g283
g103
g145
g34
g250
g208
tp546
g1
(g308
S'\xba)p\xdcc\xbb\xbf@'
p547
tp548
Rp549
s(g85
g52
g16
g82
g298
g154
g178
g160
g70
g277
g184
g193
g268
g103
g187
g223
g34
g217
g67
g244
g106
g226
g220
g238
g49
g301
g262
g169
g271
g157
g199
g22
g304
g73
g142
g94
g118
g55
g232
g205
g280
g115
g166
g214
g136
g91
g181
g256
g43
g151
g196
g88
g148
g25
g79
g109
g289
g46
g112
g64
g274
g139
g265
g292
g58
g97
g100
g229
g253
g235
g211
g250
g76
g124
g145
g286
g37
g295
g61
g127
g28
g130
g163
g208
g133
g259
g241
g10
g175
g202
g40
g247
g121
g13
g31
g190
g172
g19
g283
tp550
g1
(g308
S'\x88!2\x1f\xab\x96\xbf@'
p551
tp552
Rp553
s(g13
g82
g49
g121
g106
g202
g34
g301
g19
g28
g172
g163
g64
g10
g271
g166
g187
g280
g208
g148
g46
g133
g241
g40
g16
g214
g181
g226
g205
g25
g115
g220
g97
g211
g262
g130
g199
g124
g145
g73
g295
g139
g217
g31
g160
g178
g250
g247
g289
g79
g103
g274
g76
g85
g244
g268
g127
g154
g52
g109
g70
g304
g292
g229
g157
g253
g286
g223
g298
g256
g22
g196
g43
g58
g55
g235
g277
g142
g232
g136
g151
g190
g112
g175
g94
g259
g238
g193
g37
g100
g265
g88
g169
g184
g67
g283
g61
g118
g91
tp554
g1
(g308
S'\x8e\xa1A\x9a\xdb\xaa\xc0@'
p555
tp556
Rp557
s(g127
g271
g37
g169
g295
g247
g85
g250
g142
g292
g139
g196
g34
g298
g268
g103
g301
g43
g58
g214
g145
g61
g73
g106
g67
g190
g130
g262
g184
g235
g265
g163
g223
g220
g232
g88
g97
g304
g283
g241
g280
g148
g217
g52
g79
g124
g25
g202
g208
g70
g55
g259
g64
g274
g178
g205
g175
g193
g133
g256
g94
g229
g46
g118
g211
g40
g154
g91
g112
g160
g172
g82
g76
g244
g238
g136
g115
g253
g13
g121
g187
g181
g286
g226
g16
g19
g289
g157
g277
g199
g31
g22
g100
g10
g151
g109
g28
g166
g49
tp558
g1
(g308
S'w[\x0f\x80\x1e\x91\xc2@'
p559
tp560
Rp561
s(g130
g145
g136
g289
g94
g211
g46
g97
g88
g61
g103
g40
g250
g238
g28
g109
g106
g79
g166
g37
g295
g304
g55
g259
g193
g265
g115
g67
g43
g10
g22
g31
g184
g283
g64
g142
g34
g82
g49
g19
g241
g172
g70
g124
g232
g127
g181
g91
g220
g199
g262
g100
g247
g274
g298
g268
g301
g76
g229
g178
g58
g277
g25
g244
g151
g280
g286
g208
g202
g187
g118
g169
g85
g271
g133
g190
g139
g52
g292
g196
g73
g13
g217
g253
g214
g157
g121
g235
g226
g175
g205
g223
g148
g16
g154
g112
g256
g160
g163
tp562
g1
(g308
S'c\xfc\xbf\x0b\x13\x1e\xc0@'
p563
tp564
Rp565
s(g79
g277
g304
g286
g40
g49
g292
g13
g22
g280
g34
g127
g163
g58
g151
g169
g199
g220
g109
g160
g241
g43
g196
g259
g268
g52
g106
g226
g265
g25
g100
g10
g16
g250
g139
g217
g211
g172
g142
g148
g253
g181
g19
g214
g187
g190
g247
g103
g28
g85
g37
g184
g133
g193
g88
g121
g298
g244
g223
g235
g238
g124
g256
g130
g295
g61
g73
g55
g145
g232
g82
g202
g64
g274
g46
g118
g175
g166
g70
g208
g76
g178
g115
g271
g262
g283
g154
g31
g112
g205
g289
g91
g301
g97
g229
g157
g94
g136
g67
tp566
g1
(g308
S'/\x1e\xa4\xbb^\x97\xc1@'
p567
tp568
Rp569
s(g112
g19
g229
g82
g190
g256
g124
g259
g178
g253
g244
g64
g163
g169
g46
g262
g175
g118
g223
g70
g208
g298
g250
g217
g214
g61
g235
g274
g238
g88
g151
g58
g25
g148
g226
g106
g13
g76
g268
g55
g304
g289
g301
g79
g160
g292
g52
g277
g22
g280
g97
g40
g199
g10
g166
g31
g139
g211
g220
g16
g100
g154
g136
g133
g241
g127
g286
g271
g202
g28
g193
g157
g187
g49
g184
g295
g181
g73
g43
g232
g34
g85
g67
g94
g247
g37
g109
g265
g121
g130
g283
g196
g103
g205
g145
g115
g142
g172
g91
tp570
g1
(g308
S'\xc4<\x85\x97\xcc\xac\xc0@'
p571
tp572
Rp573
s(g298
g85
g43
g22
g244
g16
g118
g292
g193
g274
g19
g295
g190
g109
g73
g283
g229
g34
g184
g241
g112
g262
g172
g265
g106
g28
g139
g163
g127
g142
g13
g208
g247
g151
g256
g202
g148
g217
g181
g49
g169
g37
g94
g160
g145
g67
g268
g166
g124
g136
g103
g52
g76
g223
g235
g187
g40
g253
g238
g100
g64
g55
g79
g211
g280
g214
g10
g157
g232
g205
g277
g250
g178
g304
g88
g97
g286
g196
g115
g154
g259
g271
g61
g121
g82
g301
g130
g70
g31
g226
g58
g133
g175
g199
g91
g25
g220
g289
g46
tp574
g1
(g308
S'\xb1\x9b\xfa\xf7l-\xc0@'
p575
tp576
Rp577
s(g241
g208
g49
g214
g178
g280
g244
g199
g130
g28
g163
g235
g193
g247
g118
g145
g205
g304
g298
g229
g58
g217
g97
g73
g283
g172
g286
g79
g160
g94
g115
g187
g268
g121
g19
g100
g67
g184
g70
g238
g103
g169
g211
g295
g166
g259
g274
g196
g157
g46
g265
g262
g148
g85
g22
g220
g106
g256
g250
g37
g76
g16
g55
g226
g253
g190
g139
g25
g124
g52
g202
g10
g154
g88
g34
g271
g175
g142
g301
g292
g277
g82
g223
g109
g40
g112
g64
g31
g289
g61
g136
g43
g133
g13
g127
g151
g181
g91
g232
tp578
g1
(g308
S'\x00g\xd71\xb9\x96\xc0@'
p579
tp580
Rp581
s(g46
g304
g217
g289
g145
g280
g148
g136
g97
g100
g166
g55
g232
g250
g118
g223
g268
g298
g205
g64
g106
g187
g277
g70
g121
g256
g112
g76
g274
g178
g247
g214
g25
g73
g130
g301
g94
g37
g19
g22
g109
g202
g43
g259
g115
g193
g91
g220
g40
g34
g265
g184
g199
g13
g262
g244
g229
g124
g133
g82
g139
g31
g172
g292
g211
g67
g235
g85
g58
g79
g208
g190
g142
g163
g49
g127
g151
g283
g103
g10
g157
g154
g238
g286
g295
g226
g52
g271
g88
g169
g181
g253
g241
g16
g160
g28
g196
g61
g175
tp582
g1
(g308
S'Pd\x00y\x0eQ\xc1@'
p583
tp584
Rp585
s(g22
g133
g16
g142
g121
g265
g100
g196
g124
g148
g19
g160
g58
g91
g40
g175
g286
g55
g259
g73
g238
g94
g79
g304
g169
g37
g301
g85
g199
g10
g154
g280
g157
g127
g274
g247
g34
g232
g82
g145
g235
g178
g106
g298
g244
g64
g76
g292
g268
g136
g52
g208
g283
g253
g151
g103
g181
g49
g229
g172
g97
g163
g88
g295
g67
g289
g226
g205
g112
g166
g250
g31
g211
g277
g214
g13
g118
g130
g25
g184
g28
g193
g217
g139
g43
g223
g109
g271
g262
g256
g70
g187
g220
g202
g115
g46
g190
g241
g61
tp586
g1
(g308
S'\xd4a\x97W \xff\xbf@'
p587
tp588
Rp589
s(g220
g190
g64
g94
g172
g166
g91
g295
g70
g154
g124
g145
g139
g292
g193
g13
g100
g109
g265
g112
g28
g25
g244
g259
g286
g148
g19
g205
g130
g151
g58
g211
g136
g184
g187
g115
g283
g175
g178
g142
g199
g88
g232
g61
g121
g103
g49
g289
g52
g157
g43
g241
g256
g262
g214
g223
g160
g181
g55
g82
g127
g196
g226
g97
g133
g217
g202
g301
g16
g67
g274
g76
g40
g280
g73
g229
g235
g238
g10
g22
g46
g169
g304
g79
g253
g298
g118
g247
g163
g271
g85
g37
g277
g31
g268
g208
g34
g106
g250
tp590
g1
(g308
S'\x02\x1b\xd3`\xa4\x19\xbf@'
p591
tp592
Rp593
s(g148
g250
g232
g274
g283
g109
g190
g52
g25
g70
g61
g43
g100
g67
g304
g202
g271
g220
g16
g76
g130
g136
g31
g175
g268
g247
g28
g49
g139
g301
g238
g91
g115
g85
g205
g184
g265
g289
g187
g259
g112
g145
g226
g286
g19
g79
g82
g73
g34
g58
g157
g142
g244
g22
g46
g163
g124
g235
g262
g133
g166
g55
g97
g103
g295
g106
g208
g241
g121
g223
g292
g169
g154
g298
g196
g40
g88
g211
g280
g172
g10
g13
g37
g64
g253
g199
g277
g151
g118
g160
g94
g229
g181
g193
g214
g256
g127
g178
g217
tp594
g1
(g308
S'\xeb\x91N\x1czw\xc0@'
p595
tp596
Rp597
s(g199
g148
g286
g160
g106
g121
g145
g232
g25
g91
g187
g250
g226
g82
g139
g181
g175
g40
g154
g283
g118
g49
g277
g166
g115
g289
g280
g169
g244
g247
g292
g76
g133
g55
g202
g178
g34
g70
g190
g238
g100
g253
g256
g142
g31
g28
g67
g223
g241
g88
g298
g151
g103
g97
g127
g262
g73
g229
g136
g205
g112
g163
g208
g61
g304
g157
g94
g214
g16
g301
g124
g193
g43
g271
g58
g79
g46
g220
g13
g259
g265
g217
g37
g295
g172
g22
g19
g64
g274
g184
g196
g52
g10
g235
g130
g109
g211
g85
g268
tp598
g1
(g308
S'\x18\xc9\x85\xda\xe3\xac\xc0@'
p599
tp600
Rp601
s(g28
g61
g241
g262
g139
g142
g265
g133
g40
g292
g304
g235
g229
g112
g301
g283
g268
g79
g277
g157
g286
g130
g109
g223
g13
g226
g298
g64
g148
g193
g100
g295
g175
g136
g217
g187
g169
g58
g88
g103
g16
g238
g124
g247
g196
g34
g214
g160
g205
g52
g118
g184
g37
g202
g10
g76
g85
g181
g46
g97
g70
g151
g127
g82
g25
g121
g94
g55
g289
g199
g22
g73
g271
g256
g190
g208
g166
g211
g259
g172
g31
g178
g49
g115
g220
g253
g91
g43
g244
g145
g274
g163
g154
g106
g67
g19
g232
g250
g280
tp602
g1
(g308
S'I\xea*\x00\xbb\x99\xbe@'
p603
tp604
Rp605
s(g298
g166
g34
g157
g115
g124
g49
g178
g262
g205
g190
g25
g181
g214
g160
g229
g97
g208
g211
g223
g250
g28
g289
g52
g106
g202
g148
g13
g103
g79
g193
g37
g127
g67
g217
g241
g112
g253
g85
g244
g238
g277
g145
g22
g220
g142
g304
g196
g46
g265
g91
g19
g232
g70
g43
g292
g271
g151
g163
g94
g118
g184
g154
g256
g10
g40
g55
g175
g169
g133
g259
g100
g199
g301
g64
g61
g16
g187
g286
g280
g235
g130
g58
g76
g136
g109
g73
g172
g274
g82
g139
g88
g268
g247
g226
g295
g31
g283
g121
tp606
g1
(g308
S'\x14\\\xc1\xdd\x81\xf0\xbf@'
p607
tp608
Rp609
s(g148
g76
g250
g112
g283
g289
g301
g145
g172
g205
g163
g58
g49
g208
g25
g88
g199
g124
g241
g304
g130
g178
g256
g121
g100
g136
g85
g70
g286
g220
g229
g94
g295
g97
g28
g271
g277
g181
g232
g16
g34
g238
g211
g169
g184
g133
g109
g262
g217
g103
g193
g13
g247
g235
g160
g268
g142
g67
g46
g55
g43
g91
g154
g64
g280
g61
g151
g298
g37
g187
g214
g40
g259
g82
g253
g196
g292
g226
g202
g19
g274
g157
g22
g166
g31
g175
g52
g223
g139
g265
g10
g190
g244
g127
g73
g115
g79
g106
g118
tp610
g1
(g308
S'(y\x99\x85\x9c\x9c\xc1@'
p611
tp612
Rp613
s(g10
g52
g211
g244
g94
g160
g85
g169
g190
g250
g163
g139
g124
g115
g91
g37
g103
g172
g274
g70
g58
g154
g196
g82
g100
g202
g256
g127
g142
g265
g118
g301
g193
g277
g166
g181
g148
g97
g271
g40
g22
g133
g28
g76
g16
g235
g205
g223
g109
g73
g247
g175
g31
g238
g64
g289
g295
g178
g217
g232
g157
g262
g130
g199
g49
g55
g259
g34
g13
g67
g106
g208
g88
g46
g286
g121
g112
g151
g214
g61
g79
g226
g43
g283
g145
g229
g253
g184
g19
g25
g304
g187
g298
g220
g292
g280
g136
g268
g241
tp614
g1
(g308
S'\x1e\x90\xc8\x1c=\x9a\xbe@'
p615
tp616
Rp617
s(g64
g280
g304
g298
g289
g163
g82
g214
g130
g193
g286
g238
g247
g199
g232
g151
g40
g31
g268
g145
g70
g10
g37
g253
g274
g181
g121
g187
g94
g67
g157
g25
g49
g154
g115
g112
g226
g184
g217
g301
g58
g76
g142
g292
g259
g118
g133
g160
g22
g16
g202
g283
g196
g55
g124
g46
g208
g88
g85
g271
g277
g139
g175
g34
g178
g61
g256
g211
g127
g148
g262
g166
g205
g100
g223
g295
g169
g73
g79
g265
g91
g229
g28
g220
g97
g103
g106
g19
g109
g136
g172
g43
g13
g241
g250
g190
g52
g235
g244
tp618
g1
(g308
S'\x9e\xf4&D\x9eF\xc0@'
p619
tp620
Rp621
s(g163
g37
g139
g16
g127
g25
g61
g85
g190
g133
g58
g259
g184
g220
g262
g55
g79
g46
g247
g244
g112
g157
g292
g148
g145
g193
g88
g142
g304
g277
g82
g301
g205
g10
g274
g13
g298
g31
g136
g217
g130
g43
g238
g175
g235
g49
g109
g199
g76
g22
g232
g214
g256
g286
g94
g250
g64
g166
g106
g283
g118
g172
g115
g70
g40
g280
g154
g268
g73
g100
g289
g211
g103
g208
g229
g67
g160
g196
g295
g34
g271
g187
g265
g181
g28
g202
g241
g169
g97
g19
g178
g124
g226
g223
g253
g52
g151
g121
g91
tp622
g1
(g308
S'\xf9\xb8@`\x95\x14\xc0@'
p623
tp624
Rp625
s(g244
g154
g160
g10
g124
g76
g256
g28
g289
g40
g145
g112
g175
g196
g127
g70
g232
g262
g64
g19
g22
g184
g271
g247
g187
g82
g301
g46
g73
g268
g139
g265
g31
g115
g103
g295
g304
g163
g220
g217
g181
g190
g25
g274
g34
g52
g202
g205
g91
g241
g235
g136
g253
g208
g121
g109
g298
g13
g226
g130
g214
g283
g166
g280
g55
g148
g37
g211
g223
g259
g199
g250
g16
g88
g118
g94
g61
g229
g133
g100
g193
g79
g238
g142
g277
g97
g178
g157
g85
g151
g172
g286
g292
g49
g58
g169
g67
g106
g43
tp626
g1
(g308
S'\xee\xcd\x0f\x1e\xb4\xa9\xbe@'
p627
tp628
Rp629
s(g283
g73
g76
g256
g91
g229
g286
g238
g250
g103
g226
g109
g28
g220
g88
g10
g43
g181
g55
g205
g196
g97
g292
g124
g22
g142
g67
g79
g133
g148
g253
g259
g127
g199
g85
g139
g247
g208
g160
g25
g280
g232
g274
g58
g235
g49
g157
g193
g31
g37
g244
g223
g175
g154
g46
g262
g298
g121
g172
g40
g13
g82
g136
g169
g70
g52
g268
g145
g202
g271
g34
g217
g187
g112
g61
g214
g301
g106
g184
g265
g166
g289
g16
g151
g295
g130
g94
g163
g190
g178
g304
g118
g100
g19
g277
g115
g241
g211
g64
tp630
g1
(g308
S'\xd0O\x90K\x14\xcd\xc0@'
p631
tp632
Rp633
s(g274
g190
g136
g223
g118
g130
g127
g28
g82
g193
g22
g253
g160
g85
g196
g100
g121
g175
g241
g58
g268
g91
g244
g178
g238
g166
g55
g67
g154
g181
g187
g283
g304
g271
g205
g46
g184
g25
g43
g229
g295
g16
g220
g145
g88
g226
g52
g73
g208
g19
g94
g76
g247
g286
g262
g49
g235
g214
g148
g301
g142
g172
g13
g139
g70
g40
g250
g211
g79
g199
g169
g103
g37
g151
g31
g202
g109
g34
g61
g256
g298
g124
g64
g265
g112
g289
g217
g163
g106
g280
g97
g115
g292
g232
g157
g133
g10
g277
g259
tp634
g1
(g308
S'\x91\x81l\x99\x15=\xbf@'
p635
tp636
Rp637
s(g196
g94
g70
g190
g265
g193
g16
g247
g241
g286
g214
g208
g277
g160
g268
g157
g121
g211
g250
g118
g274
g76
g82
g220
g232
g13
g31
g106
g100
g292
g151
g187
g112
g28
g10
g91
g223
g79
g130
g280
g19
g88
g166
g199
g184
g217
g256
g175
g52
g301
g154
g244
g25
g289
g97
g127
g37
g145
g298
g58
g202
g229
g226
g178
g172
g295
g40
g49
g115
g22
g304
g163
g259
g139
g124
g67
g109
g262
g181
g205
g136
g73
g238
g43
g85
g103
g169
g46
g235
g253
g271
g61
g133
g142
g64
g55
g34
g148
g283
tp638
g1
(g308
S'/\xfaf\x95\x02\xed\xbe@'
p639
tp640
Rp641
s(g100
g205
g199
g106
g292
g37
g112
g289
g157
g136
g64
g304
g238
g67
g118
g52
g94
g169
g196
g70
g139
g28
g25
g175
g298
g217
g253
g10
g241
g34
g178
g73
g235
g43
g193
g79
g109
g220
g160
g211
g58
g256
g13
g82
g88
g223
g244
g295
g19
g163
g232
g277
g22
g271
g124
g283
g145
g31
g142
g55
g49
g85
g229
g97
g226
g274
g16
g184
g91
g280
g127
g172
g40
g202
g148
g103
g214
g76
g151
g115
g190
g259
g46
g61
g154
g265
g268
g247
g166
g262
g181
g301
g187
g133
g286
g208
g121
g250
g130
tp642
g1
(g308
S'\x17\x92\xa8\x03\x88r\xc0@'
p643
tp644
Rp645
s(g283
g226
g40
g157
g70
g124
g205
g280
g46
g148
g88
g130
g214
g52
g58
g211
g85
g169
g43
g106
g184
g301
g229
g166
g118
g22
g271
g67
g217
g262
g73
g121
g241
g220
g55
g259
g94
g196
g256
g61
g64
g13
g286
g244
g103
g100
g37
g193
g277
g199
g202
g82
g31
g79
g109
g247
g160
g127
g265
g163
g142
g172
g115
g295
g274
g91
g136
g238
g298
g253
g139
g208
g268
g133
g304
g97
g145
g178
g49
g25
g235
g28
g289
g187
g181
g175
g19
g154
g112
g232
g16
g190
g292
g34
g76
g250
g223
g10
g151
tp646
g1
(g308
S'\xf5<\xc5\xfc\xa3m\xc0@'
p647
tp648
Rp649
s(g58
g43
g160
g133
g172
g247
g157
g220
g286
g298
g148
g241
g52
g250
g259
g25
g145
g226
g175
g154
g193
g181
g94
g34
g112
g169
g304
g31
g196
g64
g199
g295
g178
g97
g217
g265
g166
g79
g256
g229
g184
g82
g235
g136
g124
g19
g271
g238
g16
g46
g28
g115
g88
g100
g106
g262
g142
g292
g232
g103
g10
g289
g22
g130
g268
g187
g127
g253
g13
g61
g40
g109
g208
g163
g280
g151
g274
g73
g211
g70
g55
g244
g205
g190
g202
g223
g277
g301
g91
g76
g283
g49
g214
g121
g118
g67
g139
g85
g37
tp650
g1
(g308
S'3\x12\xc1\xf4?\xa6\xc0@'
p651
tp652
Rp653
s(g244
g298
g226
g259
g172
g142
g115
g190
g280
g214
g22
g253
g205
g40
g85
g196
g229
g106
g166
g121
g127
g16
g67
g283
g49
g268
g181
g133
g148
g277
g163
g145
g232
g58
g184
g199
g202
g286
g235
g43
g31
g292
g160
g112
g76
g19
g208
g79
g118
g256
g82
g10
g265
g55
g46
g52
g193
g130
g274
g289
g103
g70
g157
g304
g97
g250
g73
g151
g88
g34
g100
g175
g211
g109
g136
g178
g271
g91
g28
g61
g238
g37
g154
g223
g220
g241
g247
g13
g169
g94
g139
g187
g301
g124
g64
g25
g262
g295
g217
tp654
g1
(g308
S'\xb1\x17SR\x86\xda\xbe@'
p655
tp656
Rp657
s(g106
g13
g241
g22
g121
g202
g127
g49
g235
g223
g31
g268
g25
g193
g40
g298
g100
g256
g88
g181
g55
g112
g187
g286
g196
g292
g43
g85
g220
g52
g301
g232
g244
g145
g124
g142
g166
g283
g151
g28
g295
g265
g148
g16
g37
g172
g211
g73
g94
g58
g163
g34
g226
g175
g10
g259
g229
g91
g214
g238
g184
g82
g130
g67
g190
g280
g277
g136
g169
g103
g157
g199
g247
g274
g61
g217
g76
g115
g250
g262
g70
g139
g253
g271
g79
g64
g97
g160
g133
g208
g178
g304
g289
g46
g205
g109
g118
g154
g19
tp658
g1
(g308
S'\x84\x81\xd0r\x96\xe0\xc0@'
p659
tp660
Rp661
s(g127
g262
g181
g277
g214
g97
g100
g121
g250
g13
g16
g67
g160
g265
g163
g145
g283
g109
g148
g295
g61
g184
g193
g115
g220
g223
g169
g244
g154
g178
g190
g106
g232
g274
g175
g142
g43
g133
g238
g82
g280
g52
g235
g70
g112
g76
g298
g229
g94
g301
g40
g208
g259
g49
g37
g241
g268
g28
g103
g88
g19
g64
g304
g187
g130
g211
g79
g172
g91
g205
g217
g55
g139
g247
g166
g85
g292
g22
g256
g25
g253
g46
g10
g226
g199
g58
g202
g118
g124
g73
g196
g271
g286
g151
g136
g157
g289
g34
g31
tp662
g1
(g308
S'\xfb\xcfn\xdae\x07\xc1@'
p663
tp664
Rp665
s(g109
g289
g91
g220
g301
g37
g184
g124
g106
g64
g286
g88
g79
g100
g103
g190
g247
g136
g229
g172
g55
g202
g97
g283
g166
g259
g142
g130
g70
g46
g274
g217
g181
g25
g295
g31
g76
g118
g112
g157
g73
g43
g40
g151
g139
g241
g226
g298
g49
g160
g262
g16
g193
g175
g10
g196
g271
g13
g133
g28
g19
g253
g121
g34
g52
g235
g238
g214
g169
g223
g178
g115
g211
g148
g208
g205
g82
g232
g22
g256
g244
g277
g187
g85
g292
g268
g58
g280
g265
g127
g304
g250
g67
g145
g94
g199
g154
g163
g61
tp666
g1
(g308
S'\x1f\xae\xc5\x00:u\xc0@'
p667
tp668
Rp669
s(g238
g115
g256
g49
g37
g232
g262
g277
g217
g139
g298
g220
g85
g295
g67
g88
g94
g46
g244
g265
g106
g13
g64
g283
g169
g127
g145
g151
g148
g112
g214
g58
g22
g10
g241
g202
g226
g70
g250
g124
g280
g187
g130
g259
g154
g181
g163
g172
g211
g34
g274
g118
g28
g247
g100
g301
g253
g205
g73
g196
g208
g55
g166
g25
g103
g133
g289
g199
g193
g79
g142
g178
g82
g184
g19
g190
g43
g160
g304
g271
g235
g61
g157
g286
g109
g31
g223
g121
g229
g16
g76
g52
g97
g292
g136
g268
g91
g175
g40
tp670
g1
(g308
S'\xcf:%\xdb\x9f\x9b\xbf@'
p671
tp672
Rp673
s(g70
g193
g28
g37
g49
g187
g289
g145
g106
g166
g241
g286
g100
g13
g79
g55
g61
g256
g304
g202
g34
g22
g220
g229
g172
g157
g181
g190
g103
g154
g25
g244
g52
g253
g130
g277
g136
g124
g40
g295
g205
g169
g250
g43
g67
g112
g280
g58
g271
g283
g217
g16
g211
g133
g139
g247
g259
g91
g76
g10
g142
g19
g175
g208
g268
g274
g223
g226
g115
g82
g196
g118
g235
g232
g64
g73
g85
g178
g148
g31
g265
g262
g301
g199
g184
g88
g46
g121
g127
g298
g160
g163
g214
g238
g94
g97
g292
g151
g109
tp674
g1
(g308
S'\xb3\xe1\x96|7C\xbf@'
p675
tp676
Rp677
s(g115
g10
g265
g121
g166
g304
g73
g79
g193
g88
g94
g232
g187
g40
g244
g46
g127
g205
g103
g259
g283
g67
g280
g169
g76
g184
g229
g22
g97
g16
g295
g13
g136
g196
g49
g208
g151
g301
g202
g100
g250
g298
g256
g112
g139
g223
g148
g25
g226
g247
g277
g19
g31
g85
g154
g34
g163
g178
g130
g241
g64
g292
g70
g199
g37
g175
g253
g145
g217
g52
g211
g133
g43
g286
g271
g142
g28
g235
g55
g181
g220
g262
g160
g190
g172
g109
g268
g118
g214
g157
g289
g124
g61
g274
g238
g106
g91
g58
g82
tp678
g1
(g308
S"bd\xaa\x9d\xc0'\xc0@"
p679
tp680
Rp681
s(g295
g151
g169
g166
g43
g127
g220
g40
g262
g52
g37
g232
g115
g214
g268
g277
g289
g91
g10
g154
g193
g76
g160
g88
g46
g67
g202
g157
g301
g133
g190
g175
g124
g100
g229
g73
g304
g130
g136
g253
g13
g250
g184
g208
g97
g163
g199
g223
g22
g34
g25
g226
g28
g58
g241
g217
g139
g112
g256
g271
g82
g280
g19
g31
g106
g172
g244
g94
g118
g85
g103
g235
g211
g298
g121
g205
g196
g247
g145
g181
g16
g178
g286
g274
g238
g187
g49
g142
g148
g61
g64
g70
g79
g283
g265
g259
g109
g55
g292
tp682
g1
(g308
S'\xe6\x98\xd6\xea$$\xc0@'
p683
tp684
Rp685
s(g178
g229
g73
g127
g103
g154
g262
g259
g55
g157
g172
g181
g304
g214
g31
g256
g175
g64
g109
g10
g100
g184
g145
g232
g163
g280
g241
g301
g211
g199
g94
g250
g160
g286
g265
g34
g277
g52
g37
g190
g85
g88
g130
g25
g49
g115
g292
g79
g121
g142
g58
g268
g43
g148
g76
g40
g70
g61
g217
g271
g46
g244
g295
g124
g166
g13
g139
g112
g220
g196
g187
g202
g193
g226
g238
g97
g28
g247
g91
g208
g118
g133
g106
g22
g274
g205
g253
g235
g136
g283
g169
g289
g19
g151
g223
g67
g298
g82
g16
tp686
g1
(g308
S'\xa7\x1a\xe7\x7f\xa7\x98\xc1@'
p687
tp688
Rp689
s(g55
g112
g16
g184
g280
g220
g106
g136
g247
g172
g43
g91
g175
g70
g181
g244
g97
g199
g271
g124
g238
g13
g67
g64
g100
g25
g292
g283
g232
g82
g76
g253
g49
g277
g94
g268
g211
g58
g190
g88
g79
g46
g256
g31
g262
g226
g130
g301
g37
g61
g304
g163
g73
g127
g214
g169
g34
g229
g85
g19
g223
g295
g121
g160
g286
g10
g193
g250
g133
g22
g28
g145
g202
g151
g235
g187
g298
g217
g205
g259
g40
g142
g103
g196
g115
g154
g109
g118
g178
g289
g208
g157
g139
g148
g241
g52
g274
g166
g265
tp690
g1
(g308
S'\xe30\xa1\x96\xcft\xc0@'
p691
tp692
Rp693
s(g304
g22
g229
g253
g34
g139
g82
g259
g274
g295
g298
g103
g211
g49
g25
g19
g10
g97
g286
g199
g172
g166
g91
g232
g181
g187
g136
g58
g178
g268
g148
g64
g94
g196
g31
g154
g157
g13
g283
g226
g244
g214
g301
g37
g16
g280
g55
g52
g118
g208
g121
g190
g160
g76
g46
g205
g127
g112
g100
g220
g79
g238
g169
g133
g109
g43
g262
g271
g40
g151
g85
g235
g277
g184
g175
g142
g70
g292
g247
g106
g67
g241
g115
g163
g130
g289
g223
g145
g217
g202
g61
g256
g193
g88
g265
g28
g250
g73
g124
tp694
g1
(g308
S'l\x99\xfa\xb3\xa9\xf4\xbf@'
p695
tp696
Rp697
s(g244
g64
g67
g205
g268
g124
g274
g292
g229
g250
g280
g10
g103
g151
g175
g88
g106
g115
g166
g85
g208
g28
g286
g22
g184
g133
g190
g139
g226
g82
g298
g91
g31
g247
g16
g70
g121
g238
g127
g259
g109
g169
g112
g178
g181
g289
g136
g19
g232
g100
g253
g145
g217
g172
g76
g202
g55
g160
g73
g148
g271
g283
g118
g154
g235
g256
g97
g301
g43
g13
g46
g142
g52
g265
g214
g241
g223
g304
g295
g193
g58
g262
g277
g130
g196
g211
g25
g49
g79
g37
g199
g94
g163
g34
g157
g220
g40
g61
g187
tp698
g1
(g308
S'\xc5\x8ct\xf4\xd2q\xc0@'
p699
tp700
Rp701
s(g82
g139
g163
g151
g88
g220
g208
g109
g37
g235
g214
g40
g22
g250
g199
g232
g259
g298
g289
g148
g187
g175
g13
g121
g58
g43
g301
g196
g223
g91
g229
g169
g193
g226
g124
g277
g292
g265
g28
g262
g190
g271
g274
g19
g67
g34
g133
g10
g76
g178
g127
g61
g280
g94
g16
g238
g202
g154
g184
g55
g79
g115
g256
g112
g253
g130
g241
g286
g217
g136
g268
g85
g211
g46
g157
g52
g103
g49
g181
g25
g205
g100
g97
g31
g304
g142
g160
g106
g64
g166
g295
g283
g247
g118
g70
g244
g145
g172
g73
tp702
g1
(g308
S'^E3>\xbd\xc5\xc1@'
p703
tp704
Rp705
s(g136
g133
g298
g178
g202
g301
g97
g61
g253
g70
g187
g82
g127
g31
g199
g304
g223
g16
g37
g238
g283
g118
g181
g94
g259
g52
g169
g124
g64
g91
g175
g121
g232
g214
g205
g25
g262
g139
g106
g10
g229
g250
g76
g115
g28
g226
g268
g274
g58
g43
g241
g22
g277
g145
g85
g211
g196
g289
g142
g271
g100
g79
g217
g292
g160
g172
g34
g19
g256
g40
g157
g244
g235
g67
g109
g166
g280
g190
g73
g130
g13
g247
g184
g295
g55
g148
g151
g208
g154
g163
g88
g193
g220
g265
g49
g112
g46
g286
g103
tp706
g1
(g308
S'o\x1d?\xd0\xa1h\xc0@'
p707
tp708
Rp709
s.